; Function Attrs: mustprogress uwtable
define void @_ZNK5Ipopt14DenseGenMatrix9PrintImplERKNS_10JournalistENS_13EJournalLevelENS_16EJournalCategoryERKNSt7__cxx1112basic_stringIcSt11char_traitsIcESaIcEEEiSD_(ptr noundef nonnull readonly align 8 captures(none) dereferenceable(104) %0, ptr noundef nonnull align 8 dereferenceable(40) %1, i32 noundef %2, i32 noundef %3, ptr noundef nonnull readonly align 8 captures(none) dereferenceable(32) %4, i32 noundef %5, ptr noundef nonnull readonly align 8 captures(none) dereferenceable(32) %6) unnamed_addr #2 align 2 personality ptr @__gxx_personality_v0 {
  %8 = load ptr, ptr %1, align 8, !tbaa !3
  %9 = getelementptr inbounds nuw i8, ptr %8, i64 16
  %10 = load ptr, ptr %9, align 8
  tail call void (ptr, i32, i32, ptr, ...) %10(ptr noundef nonnull align 8 dereferenceable(40) %1, i32 noundef %2, i32 noundef %3, ptr noundef nonnull @.str)
  %11 = load ptr, ptr %6, align 8, !tbaa !115
  %12 = load ptr, ptr %4, align 8, !tbaa !115
  %13 = getelementptr inbounds nuw i8, ptr %0, i64 56
  %14 = load ptr, ptr %13, align 8, !tbaa !6
  %15 = getelementptr inbounds nuw i8, ptr %14, i64 12
  %16 = load i32, ptr %15, align 4, !tbaa !33
  %17 = getelementptr inbounds nuw i8, ptr %14, i64 16
  %18 = load i32, ptr %17, align 8, !tbaa !31
  %19 = load ptr, ptr %1, align 8, !tbaa !3
  %20 = getelementptr inbounds nuw i8, ptr %19, i64 32
  %21 = load ptr, ptr %20, align 8
  tail call void (ptr, i32, i32, i32, ptr, ...) %21(ptr noundef nonnull align 8 dereferenceable(40) %1, i32 noundef %2, i32 noundef %3, i32 noundef %5, ptr noundef nonnull @.str.1, ptr noundef %11, ptr noundef %12, i32 noundef %16, i32 noundef %18)
  %22 = getelementptr inbounds nuw i8, ptr %0, i64 88
  %23 = load i8, ptr %22, align 8, !tbaa !35, !range !103, !noundef !104
  %24 = trunc nuw i8 %23 to i1
  br i1 %24, label %.preheader28, label %59

.preheader28:                                     ; preds = %7
  %25 = load ptr, ptr %13, align 8, !tbaa !6
  %26 = getelementptr inbounds nuw i8, ptr %25, i64 16
  %27 = load i32, ptr %26, align 8, !tbaa !31
  %28 = icmp sgt i32 %27, 0
  br i1 %28, label %.preheader.lr.ph, label %.loopexit

.preheader.lr.ph:                                 ; preds = %.preheader28
  %29 = getelementptr inbounds nuw i8, ptr %0, i64 80
  %30 = getelementptr inbounds nuw i8, ptr %25, i64 12
  %31 = load i32, ptr %30, align 4, !tbaa !33
  %32 = icmp sgt i32 %31, 0
  br i1 %32, label %.preheader, label %.loopexit

.preheader:                                       ; preds = %.preheader.lr.ph, %._crit_edge
  %33 = phi ptr [ %37, %._crit_edge ], [ %25, %.preheader.lr.ph ]
  %.02730 = phi i32 [ %38, %._crit_edge ], [ 0, %.preheader.lr.ph ]
  %34 = getelementptr inbounds nuw i8, ptr %33, i64 12
  %35 = load i32, ptr %34, align 4, !tbaa !33
  %36 = icmp sgt i32 %35, 0
  br i1 %36, label %.lr.ph, label %._crit_edge

._crit_edge:                                      ; preds = %.lr.ph, %.preheader
  %37 = phi ptr [ %33, %.preheader ], [ %55, %.lr.ph ]
  %38 = add nuw nsw i32 %.02730, 1
  %39 = getelementptr inbounds nuw i8, ptr %37, i64 16
  %40 = load i32, ptr %39, align 8, !tbaa !31
  %41 = icmp slt i32 %38, %40
  br i1 %41, label %.preheader, label %.loopexit, !llvm.loop !120

.lr.ph:                                           ; preds = %.preheader, %.lr.ph
  %42 = phi i32 [ %57, %.lr.ph ], [ %35, %.preheader ]
  %.029 = phi i32 [ %54, %.lr.ph ], [ 0, %.preheader ]
  %43 = load ptr, ptr %6, align 8, !tbaa !115
  %44 = load ptr, ptr %4, align 8, !tbaa !115
  %45 = load ptr, ptr %29, align 8, !tbaa !34
  %46 = mul nsw i32 %42, %.02730
  %47 = add nsw i32 %46, %.029
  %48 = sext i32 %47 to i64
  %49 = getelementptr inbounds double, ptr %45, i64 %48
  %50 = load double, ptr %49, align 8, !tbaa !47
  %51 = load ptr, ptr %1, align 8, !tbaa !3
  %52 = getelementptr inbounds nuw i8, ptr %51, i64 32
  %53 = load ptr, ptr %52, align 8
  tail call void (ptr, i32, i32, i32, ptr, ...) %53(ptr noundef nonnull align 8 dereferenceable(40) %1, i32 noundef %2, i32 noundef %3, i32 noundef %5, ptr noundef nonnull @.str.2, ptr noundef %43, ptr noundef %44, i32 noundef %.029, i32 noundef %.02730, double noundef %50)
  %54 = add nuw nsw i32 %.029, 1
  %55 = load ptr, ptr %13, align 8, !tbaa !6
  %56 = getelementptr inbounds nuw i8, ptr %55, i64 12
  %57 = load i32, ptr %56, align 4, !tbaa !33
  %58 = icmp slt i32 %54, %57
  br i1 %58, label %.lr.ph, label %._crit_edge, !llvm.loop !121

59:                                               ; preds = %7
  %60 = load ptr, ptr %1, align 8, !tbaa !3
  %61 = getelementptr inbounds nuw i8, ptr %60, i64 32
  %62 = load ptr, ptr %61, align 8
  tail call void (ptr, i32, i32, i32, ptr, ...) %62(ptr noundef nonnull align 8 dereferenceable(40) %1, i32 noundef %2, i32 noundef %3, i32 noundef %5, ptr noundef nonnull @.str.3)
  br label %.loopexit

.loopexit:                                        ; preds = %._crit_edge, %.preheader.lr.ph, %.preheader28, %59
  ret void
}